; Function Attrs: nounwind uwtable
define ptr @Gia_ManDupZero(ptr noundef readonly captures(none) %0) local_unnamed_addr #1 {
  %2 = getelementptr i8, ptr %0, i64 64
  %.val17 = load ptr, ptr %2, align 8
  %3 = getelementptr i8, ptr %.val17, i64 4
  %.val17.val = load i32, ptr %3, align 4
  %4 = add nsw i32 %.val17.val, 1
  %5 = getelementptr i8, ptr %0, i64 72
  %.val15 = load ptr, ptr %5, align 8
  %6 = getelementptr i8, ptr %.val15, i64 4
  %.val15.val = load i32, ptr %6, align 4
  %7 = add nsw i32 %4, %.val15.val
  %8 = tail call ptr @Gia_ManStart(i32 noundef %7) #29
  %9 = load ptr, ptr %0, align 8
  %.not.i = icmp eq ptr %9, null
  br i1 %.not.i, label %Abc_UtilStrsav.exit, label %10

10:                                               ; preds = %1
  %11 = tail call i64 @strlen(ptr noundef nonnull readonly dereferenceable(1) %9) #30
  %12 = add i64 %11, 1
  %13 = tail call noalias ptr @malloc(i64 noundef %12) #27
  %14 = tail call ptr @strcpy(ptr noundef nonnull dereferenceable(1) %13, ptr noundef nonnull readonly dereferenceable(1) %9) #29
  br label %Abc_UtilStrsav.exit

Abc_UtilStrsav.exit:                              ; preds = %1, %10
  %15 = phi ptr [ %13, %10 ], [ null, %1 ]
  store ptr %15, ptr %8, align 8
  %.val1618 = load ptr, ptr %2, align 8
  %16 = getelementptr i8, ptr %.val1618, i64 4
  %.val16.val19 = load i32, ptr %16, align 4
  %17 = icmp sgt i32 %.val16.val19, 0
  br i1 %17, label %.lr.ph, label %.preheader

.preheader:                                       ; preds = %.lr.ph, %Abc_UtilStrsav.exit
  %.val1421 = load ptr, ptr %5, align 8
  %18 = getelementptr i8, ptr %.val1421, i64 4
  %.val14.val22 = load i32, ptr %18, align 4
  %19 = icmp sgt i32 %.val14.val22, 0
  br i1 %19, label %.lr.ph24, label %._crit_edge

.lr.ph:                                           ; preds = %Abc_UtilStrsav.exit, %.lr.ph
  %.020 = phi i32 [ %21, %.lr.ph ], [ 0, %Abc_UtilStrsav.exit ]
  %20 = tail call fastcc i32 @Gia_ManAppendCi(ptr noundef nonnull %8)
  %21 = add nuw nsw i32 %.020, 1
  %.val16 = load ptr, ptr %2, align 8
  %22 = getelementptr i8, ptr %.val16, i64 4
  %.val16.val = load i32, ptr %22, align 4
  %23 = icmp slt i32 %21, %.val16.val
  br i1 %23, label %.lr.ph, label %.preheader, !llvm.loop !69

.lr.ph24:                                         ; preds = %.preheader, %.lr.ph24
  %.123 = phi i32 [ %25, %.lr.ph24 ], [ 0, %.preheader ]
  %24 = tail call fastcc i32 @Gia_ManAppendCo(ptr noundef nonnull %8, i32 noundef 0)
  %25 = add nuw nsw i32 %.123, 1
  %.val14 = load ptr, ptr %5, align 8
  %26 = getelementptr i8, ptr %.val14, i64 4
  %.val14.val = load i32, ptr %26, align 4
  %27 = icmp slt i32 %25, %.val14.val
  br i1 %27, label %.lr.ph24, label %._crit_edge, !llvm.loop !70

._crit_edge:                                      ; preds = %.lr.ph24, %.preheader
  %28 = getelementptr i8, ptr %0, i64 16
  %.val = load i32, ptr %28, align 8
  tail call void @Gia_ManSetRegNum(ptr noundef nonnull %8, i32 noundef %.val) #29
  ret ptr %8
}